target datalayout = "e-m:e-p270:32:32-p271:32:32-p272:64:64-i64:64-i128:128-f80:128-n8:16:32:64-S128"
target triple = "x86_64-pc-linux-gnu"

%struct.lua_State = type { %struct.GCRef, i8, i8, i8, i8, %struct.MRef, %struct.GCRef, ptr, ptr, %struct.MRef, %struct.MRef, %struct.GCRef, %struct.GCRef, ptr, i32 }
%struct.MRef = type { i64 }
%struct.GCRef = type { i64 }
%union.TValue = type { i64 }

@.str.10 = private unnamed_addr constant [26 x i8] c"\04prng\07strhash\05strid\05mcode\00", align 1

; Function Attrs: alwaysinline nounwind uwtable
define internal void @setintV(ptr noundef %0, i32 noundef %1) #5 {
  %3 = alloca ptr, align 8
  %4 = alloca i32, align 4
  store ptr %0, ptr %3, align 8, !tbaa !56
  store i32 %1, ptr %4, align 4, !tbaa !35
  %5 = load i32, ptr %4, align 4, !tbaa !35
  %6 = sitofp i32 %5 to double
  %7 = load ptr, ptr %3, align 8, !tbaa !56
  store double %6, ptr %7, align 8, !tbaa !37
  ret void
}

; Function Attrs: nounwind uwtable
define internal i32 @lj_cf_jit_security(ptr noundef %0) #0 {
  %2 = alloca ptr, align 8
  %3 = alloca i32, align 4
  store ptr %0, ptr %2, align 8, !tbaa !4
  call void @llvm.lifetime.start.p0(i64 4, ptr %3) #9
  %4 = load ptr, ptr %2, align 8, !tbaa !4
  %5 = call i32 @lj_lib_checkopt(ptr noundef %4, i32 noundef 1, i32 noundef -1, ptr noundef @.str.10)
  store i32 %5, ptr %3, align 4, !tbaa !35
  %6 = load ptr, ptr %2, align 8, !tbaa !4
  %7 = getelementptr inbounds nuw %struct.lua_State, ptr %6, i32 0, i32 8
  %8 = load ptr, ptr %7, align 8, !tbaa !16
  %9 = getelementptr inbounds nuw %union.TValue, ptr %8, i32 1
  store ptr %9, ptr %7, align 8, !tbaa !16
  %10 = load i32, ptr %3, align 4, !tbaa !35
  %11 = mul nsw i32 2, %10
  %12 = lshr i32 85, %11
  %13 = and i32 %12, 3
  call void @setintV(ptr noundef %8, i32 noundef %13)
  call void @llvm.lifetime.end.p0(i64 4, ptr %3) #9
  ret i32 1
}