; Function Attrs: nounwind uwtable
define internal noundef i32 @lj_cf_jit_security(ptr noundef %0) #0 {
  %2 = tail call i32 @lj_lib_checkopt(ptr noundef %0, i32 noundef 1, i32 noundef -1, ptr noundef nonnull @.str.10) #8
  %3 = getelementptr inbounds nuw i8, ptr %0, i64 40
  %4 = load ptr, ptr %3, align 8, !tbaa !32
  %5 = getelementptr inbounds nuw i8, ptr %4, i64 8
  store ptr %5, ptr %3, align 8, !tbaa !32
  %6 = shl nsw i32 %2, 1
  %7 = lshr i32 85, %6
  %8 = and i32 %7, 1
  %9 = uitofp nneg i32 %8 to double
  store double %9, ptr %4, align 8, !tbaa !34
  ret i32 1
}